target datalayout = "e-m:e-p270:32:32-p271:32:32-p272:64:64-i64:64-i128:128-f80:128-n8:16:32:64-S128"
target triple = "x86_64-pc-linux-gnu"

%struct.tm = type { i32, i32, i32, i32, i32, i32, i32, i32, i32, i64, ptr }

; Function Attrs: nounwind uwtable
define i32 @PGTYPEStimestamp_fmt_asc(ptr noundef %0, ptr noundef %1, i32 noundef %2, ptr noundef %3) #0 {
  %5 = alloca ptr, align 8
  %6 = alloca ptr, align 8
  %7 = alloca i32, align 4
  %8 = alloca ptr, align 8
  %9 = alloca %struct.tm, align 8
  %10 = alloca i32, align 4
  %11 = alloca i64, align 8
  %12 = alloca i32, align 4
  store ptr %0, ptr %5, align 8
  store ptr %1, ptr %6, align 8
  store i32 %2, ptr %7, align 4
  store ptr %3, ptr %8, align 8
  call void @llvm.lifetime.start.p0(i64 56, ptr %9) #11
  call void @llvm.lifetime.start.p0(i64 4, ptr %10) #11
  call void @llvm.lifetime.start.p0(i64 8, ptr %11) #11
  call void @llvm.lifetime.start.p0(i64 4, ptr %12) #11
  %13 = load ptr, ptr %5, align 8
  %14 = load i64, ptr %13, align 8
  %15 = call i64 @PGTYPESdate_from_timestamp(i64 noundef %14)
  store i64 %15, ptr %11, align 8
  %16 = load i64, ptr %11, align 8
  %17 = call i32 @PGTYPESdate_dayofweek(i64 noundef %16)
  store i32 %17, ptr %12, align 4
  %18 = load ptr, ptr %5, align 8
  %19 = load i64, ptr %18, align 8
  %20 = call i32 @timestamp2tm(i64 noundef %19, ptr noundef null, ptr noundef %9, ptr noundef %10, ptr noundef null)
  %21 = load ptr, ptr %5, align 8
  %22 = load i64, ptr %11, align 8
  %23 = load i32, ptr %12, align 4
  %24 = load ptr, ptr %6, align 8
  %25 = load ptr, ptr %8, align 8
  %26 = call i32 @dttofmtasc_replace(ptr noundef %21, i64 noundef %22, i32 noundef %23, ptr noundef %9, ptr noundef %24, ptr noundef %7, ptr noundef %25)
  call void @llvm.lifetime.end.p0(i64 4, ptr %12) #11
  call void @llvm.lifetime.end.p0(i64 8, ptr %11) #11
  call void @llvm.lifetime.end.p0(i64 4, ptr %10) #11
  call void @llvm.lifetime.end.p0(i64 56, ptr %9) #11
  ret i32 %26
}