; Function Attrs: nounwind uwtable
define i32 @PGTYPEStimestamp_fmt_asc(ptr noundef %0, ptr noundef %1, i32 noundef %2, ptr noundef readonly captures(none) %3) local_unnamed_addr #0 {
  %5 = alloca i32, align 4
  %6 = alloca %struct.tm, align 8
  %7 = alloca i32, align 4
  store i32 %2, ptr %5, align 4
  call void @llvm.lifetime.start.p0(i64 56, ptr nonnull %6) #10
  call void @llvm.lifetime.start.p0(i64 4, ptr nonnull %7) #10
  %8 = load i64, ptr %0, align 8
  %9 = tail call i64 @PGTYPESdate_from_timestamp(i64 noundef %8) #10
  %10 = tail call i32 @PGTYPESdate_dayofweek(i64 noundef %9) #10
  %11 = load i64, ptr %0, align 8
  %12 = call fastcc i32 @timestamp2tm(i64 noundef %11, ptr noundef %6, ptr noundef %7)
  %13 = call fastcc i32 @dttofmtasc_replace(ptr noundef nonnull %0, i32 noundef %10, ptr noundef %6, ptr noundef %1, ptr noundef %5, ptr noundef %3)
  call void @llvm.lifetime.end.p0(i64 4, ptr nonnull %7) #10
  call void @llvm.lifetime.end.p0(i64 56, ptr nonnull %6) #10
  ret i32 %13
}